target datalayout = "e-m:e-p270:32:32-p271:32:32-p272:64:64-i64:64-i128:128-f80:128-n8:16:32:64-S128"
target triple = "x86_64-unknown-linux-gnu"

%"class.icu_75::UObject" = type { ptr }
%"class.icu_75::UVector" = type { %"class.icu_75::UObject", i32, i32, ptr, ptr, ptr }
%"class.icu_75::TransliteratorRegistry" = type { [8 x i8], %"class.icu_75::Hashtable", %"class.icu_75::Hashtable", %"class.icu_75::UVector", %"class.icu_75::Hashtable" }
%"class.icu_75::Hashtable" = type { ptr, %struct.UHashtable }
%struct.UHashtable = type { ptr, ptr, ptr, ptr, ptr, ptr, i32, i32, i32, i32, float, float, i8, i8 }

; Function Attrs: mustprogress uwtable
define linkonce_odr noundef i32 @_ZNK6icu_759Hashtable4getiERKNS_13UnicodeStringE(ptr noundef nonnull align 8 dereferenceable(88) %this, ptr noundef nonnull align 8 dereferenceable(64) %key) #1 comdat align 2 {
entry:
  %this.addr = alloca ptr, align 8
  %key.addr = alloca ptr, align 8
  store ptr %this, ptr %this.addr, align 8
  store ptr %key, ptr %key.addr, align 8
  %this1 = load ptr, ptr %this.addr, align 8
  %hash = getelementptr inbounds %"class.icu_75::Hashtable", ptr %this1, i32 0, i32 0
  %0 = load ptr, ptr %hash, align 8
  %1 = load ptr, ptr %key.addr, align 8
  %call = call i32 @uhash_geti_75(ptr noundef %0, ptr noundef %1)
  ret i32 %call
}

; Function Attrs: mustprogress uwtable
define linkonce_odr noundef ptr @_ZNK6icu_759Hashtable3getERKNS_13UnicodeStringE(ptr noundef nonnull align 8 dereferenceable(88) %this, ptr noundef nonnull align 8 dereferenceable(64) %key) #1 comdat align 2 {
entry:
  %this.addr = alloca ptr, align 8
  %key.addr = alloca ptr, align 8
  store ptr %this, ptr %this.addr, align 8
  store ptr %key, ptr %key.addr, align 8
  %this1 = load ptr, ptr %this.addr, align 8
  %hash = getelementptr inbounds %"class.icu_75::Hashtable", ptr %this1, i32 0, i32 0
  %0 = load ptr, ptr %hash, align 8
  %1 = load ptr, ptr %key.addr, align 8
  %call = call ptr @uhash_get_75(ptr noundef %0, ptr noundef %1)
  ret ptr %call
}

; Function Attrs: mustprogress uwtable
define noundef i32 @_ZNK6icu_7522TransliteratorRegistry22countAvailableVariantsERKNS_13UnicodeStringES3_(ptr noundef nonnull align 8 dereferenceable(312) %this, ptr noundef nonnull align 8 dereferenceable(64) %source, ptr noundef nonnull align 8 dereferenceable(64) %target) #1 align 2 {
entry:
  %retval = alloca i32, align 4
  %this.addr = alloca ptr, align 8
  %source.addr = alloca ptr, align 8
  %target.addr = alloca ptr, align 8
  %targets = alloca ptr, align 8
  %varMask = alloca i32, align 4
  %varCount = alloca i32, align 4
  store ptr %this, ptr %this.addr, align 8
  store ptr %source, ptr %source.addr, align 8
  store ptr %target, ptr %target.addr, align 8
  %this1 = load ptr, ptr %this.addr, align 8
  %specDAG = getelementptr inbounds %"class.icu_75::TransliteratorRegistry", ptr %this1, i32 0, i32 2
  %0 = load ptr, ptr %source.addr, align 8
  %call = call noundef ptr @_ZNK6icu_759Hashtable3getERKNS_13UnicodeStringE(ptr noundef nonnull align 8 dereferenceable(88) %specDAG, ptr noundef nonnull align 8 dereferenceable(64) %0)
  store ptr %call, ptr %targets, align 8
  %1 = load ptr, ptr %targets, align 8
  %cmp = icmp eq ptr %1, null
  br i1 %cmp, label %if.then, label %if.end

if.then:                                          ; preds = %entry
  store i32 0, ptr %retval, align 4
  br label %return

if.end:                                           ; preds = %entry
  %2 = load ptr, ptr %targets, align 8
  %3 = load ptr, ptr %target.addr, align 8
  %call2 = call noundef i32 @_ZNK6icu_759Hashtable4getiERKNS_13UnicodeStringE(ptr noundef nonnull align 8 dereferenceable(88) %2, ptr noundef nonnull align 8 dereferenceable(64) %3)
  store i32 %call2, ptr %varMask, align 4
  store i32 0, ptr %varCount, align 4
  br label %while.cond

while.cond:                                       ; preds = %if.end5, %if.end
  %4 = load i32, ptr %varMask, align 4
  %cmp3 = icmp ugt i32 %4, 0
  br i1 %cmp3, label %while.body, label %while.end

while.body:                                       ; preds = %while.cond
  %5 = load i32, ptr %varMask, align 4
  %and = and i32 %5, 1
  %tobool = icmp ne i32 %and, 0
  br i1 %tobool, label %if.then4, label %if.end5

if.then4:                                         ; preds = %while.body
  %6 = load i32, ptr %varCount, align 4
  %inc = add nsw i32 %6, 1
  store i32 %inc, ptr %varCount, align 4
  br label %if.end5

if.end5:                                          ; preds = %if.then4, %while.body
  %7 = load i32, ptr %varMask, align 4
  %shr = lshr i32 %7, 1
  store i32 %shr, ptr %varMask, align 4
  br label %while.cond, !llvm.loop !17

while.end:                                        ; preds = %while.cond
  %8 = load i32, ptr %varCount, align 4
  store i32 %8, ptr %retval, align 4
  br label %return

return:                                           ; preds = %while.end, %if.then
  %9 = load i32, ptr %retval, align 4
  ret i32 %9
}