; Function Attrs: mustprogress uwtable
define noundef i32 @_ZNK6icu_7522TransliteratorRegistry22countAvailableVariantsERKNS_13UnicodeStringES3_(ptr nocapture noundef nonnull readonly align 8 dereferenceable(312) %this, ptr noundef nonnull align 8 dereferenceable(64) %source, ptr noundef nonnull align 8 dereferenceable(64) %target) local_unnamed_addr #1 align 2 {
entry:
  %specDAG = getelementptr inbounds i8, ptr %this, i64 96
  %0 = load ptr, ptr %specDAG, align 8
  %call.i = tail call noundef ptr @uhash_get_75(ptr noundef %0, ptr noundef nonnull %source)
  %cmp = icmp eq ptr %call.i, null
  br i1 %cmp, label %return, label %if.end

if.end:                                           ; preds = %entry
  %1 = load ptr, ptr %call.i, align 8
  %call.i5 = tail call noundef i32 @uhash_geti_75(ptr noundef %1, ptr noundef nonnull %target)
  %cmp3.not6 = icmp eq i32 %call.i5, 0
  br i1 %cmp3.not6, label %return, label %while.body

while.body:                                       ; preds = %if.end, %while.body
  %varCount.08 = phi i32 [ %spec.select, %while.body ], [ 0, %if.end ]
  %varMask.07 = phi i32 [ %shr, %while.body ], [ %call.i5, %if.end ]
  %and = and i32 %varMask.07, 1
  %spec.select = add i32 %varCount.08, %and
  %shr = lshr i32 %varMask.07, 1
  %cmp3.not = icmp ult i32 %varMask.07, 2
  br i1 %cmp3.not, label %return, label %while.body, !llvm.loop !15

return:                                           ; preds = %while.body, %if.end, %entry
  %retval.0 = phi i32 [ 0, %entry ], [ 0, %if.end ], [ %spec.select, %while.body ]
  ret i32 %retval.0
}